target datalayout = "e-m:e-p270:32:32-p271:32:32-p272:64:64-i64:64-i128:128-f80:128-n8:16:32:64-S128"
target triple = "x86_64-pc-linux-gnu"

%"class.std::unique_ptr" = type { %"struct.std::__uniq_ptr_data" }
%"struct.std::__uniq_ptr_data" = type { %"class.std::__uniq_ptr_impl" }
%"class.std::__uniq_ptr_impl" = type { %"class.std::tuple" }
%"class.std::tuple" = type { %"struct.std::_Tuple_impl" }
%"struct.std::_Tuple_impl" = type { %"struct.std::_Head_base.1" }
%"struct.std::_Head_base.1" = type { ptr }
%"class.clang::SourceLocation" = type { i32 }
%"class.std::__shared_count" = type { ptr }
%"class.std::shared_ptr.729" = type { %"class.std::__shared_ptr.730" }
%"class.std::__shared_ptr.730" = type { ptr, %"class.std::__shared_count" }
%"class.llvm::IntrusiveRefCntPtr.14" = type { ptr }
%"struct.std::__detail::_List_node_header" = type { %"struct.std::__detail::_List_node_base", i64 }
%"struct.std::__detail::_List_node_base" = type { ptr, ptr }
%"struct.std::_Rb_tree_header" = type { %"struct.std::_Rb_tree_node_base", i64 }
%"struct.std::_Rb_tree_node_base" = type { i32, ptr, ptr, ptr }
%"class.clang::CompilerInstance" = type { %"class.clang::ModuleLoader.base", %"class.std::shared_ptr.851", %"class.llvm::IntrusiveRefCntPtr.854", %"class.llvm::IntrusiveRefCntPtr.855", %"class.llvm::IntrusiveRefCntPtr.855", %"class.llvm::IntrusiveRefCntPtr.856", %"class.llvm::IntrusiveRefCntPtr.857", %"class.llvm::IntrusiveRefCntPtr.858", %"class.std::shared_ptr.859", %"class.llvm::IntrusiveRefCntPtr.862", %"class.llvm::IntrusiveRefCntPtr.863", %"class.std::unique_ptr.864", %"class.std::unique_ptr.872", %"class.std::unique_ptr.880", %"class.std::unique_ptr.888", %"class.std::unique_ptr.896", %"class.llvm::IntrusiveRefCntPtr.904", %"class.std::shared_ptr.905", %"class.std::shared_ptr.908", %"class.std::vector.911", %"class.std::shared_ptr.916", %"class.std::map.54", i8, %"class.clang::SourceLocation", %"class.clang::ModuleLoadResult", i8, i8, i8, %"class.std::unique_ptr.921", ptr, %"class.std::__cxx11::list.929", %"class.std::unique_ptr" }
%"class.clang::ModuleLoader.base" = type <{ ptr, i8, i8 }>
%"class.std::shared_ptr.851" = type { %"class.std::__shared_ptr.852" }
%"class.std::__shared_ptr.852" = type { ptr, %"class.std::__shared_count" }
%"class.llvm::IntrusiveRefCntPtr.854" = type { ptr }
%"class.llvm::IntrusiveRefCntPtr.855" = type { ptr }
%"class.llvm::IntrusiveRefCntPtr.856" = type { ptr }
%"class.llvm::IntrusiveRefCntPtr.857" = type { ptr }
%"class.llvm::IntrusiveRefCntPtr.858" = type { ptr }
%"class.std::shared_ptr.859" = type { %"class.std::__shared_ptr.860" }
%"class.std::__shared_ptr.860" = type { ptr, %"class.std::__shared_count" }
%"class.llvm::IntrusiveRefCntPtr.862" = type { ptr }
%"class.llvm::IntrusiveRefCntPtr.863" = type { ptr }
%"class.std::unique_ptr.864" = type { %"struct.std::__uniq_ptr_data.865" }
%"struct.std::__uniq_ptr_data.865" = type { %"class.std::__uniq_ptr_impl.866" }
%"class.std::__uniq_ptr_impl.866" = type { %"class.std::tuple.867" }
%"class.std::tuple.867" = type { %"struct.std::_Tuple_impl.868" }
%"struct.std::_Tuple_impl.868" = type { %"struct.std::_Head_base.871" }
%"struct.std::_Head_base.871" = type { ptr }
%"class.std::unique_ptr.872" = type { %"struct.std::__uniq_ptr_data.873" }
%"struct.std::__uniq_ptr_data.873" = type { %"class.std::__uniq_ptr_impl.874" }
%"class.std::__uniq_ptr_impl.874" = type { %"class.std::tuple.875" }
%"class.std::tuple.875" = type { %"struct.std::_Tuple_impl.876" }
%"struct.std::_Tuple_impl.876" = type { %"struct.std::_Head_base.879" }
%"struct.std::_Head_base.879" = type { ptr }
%"class.std::unique_ptr.880" = type { %"struct.std::__uniq_ptr_data.881" }
%"struct.std::__uniq_ptr_data.881" = type { %"class.std::__uniq_ptr_impl.882" }
%"class.std::__uniq_ptr_impl.882" = type { %"class.std::tuple.883" }
%"class.std::tuple.883" = type { %"struct.std::_Tuple_impl.884" }
%"struct.std::_Tuple_impl.884" = type { %"struct.std::_Head_base.887" }
%"struct.std::_Head_base.887" = type { ptr }
%"class.std::unique_ptr.888" = type { %"struct.std::__uniq_ptr_data.889" }
%"struct.std::__uniq_ptr_data.889" = type { %"class.std::__uniq_ptr_impl.890" }
%"class.std::__uniq_ptr_impl.890" = type { %"class.std::tuple.891" }
%"class.std::tuple.891" = type { %"struct.std::_Tuple_impl.892" }
%"struct.std::_Tuple_impl.892" = type { %"struct.std::_Head_base.895" }
%"struct.std::_Head_base.895" = type { ptr }
%"class.std::unique_ptr.896" = type { %"struct.std::__uniq_ptr_data.897" }
%"struct.std::__uniq_ptr_data.897" = type { %"class.std::__uniq_ptr_impl.898" }
%"class.std::__uniq_ptr_impl.898" = type { %"class.std::tuple.899" }
%"class.std::tuple.899" = type { %"struct.std::_Tuple_impl.900" }
%"struct.std::_Tuple_impl.900" = type { %"struct.std::_Head_base.903" }
%"struct.std::_Head_base.903" = type { ptr }
%"class.llvm::IntrusiveRefCntPtr.904" = type { ptr }
%"class.std::shared_ptr.905" = type { %"class.std::__shared_ptr.906" }
%"class.std::__shared_ptr.906" = type { ptr, %"class.std::__shared_count" }
%"class.std::shared_ptr.908" = type { %"class.std::__shared_ptr.909" }
%"class.std::__shared_ptr.909" = type { ptr, %"class.std::__shared_count" }
%"class.std::vector.911" = type { %"struct.std::_Vector_base.912" }
%"struct.std::_Vector_base.912" = type { %"struct.std::_Vector_base<std::shared_ptr<clang::DependencyCollector>, std::allocator<std::shared_ptr<clang::DependencyCollector>>>::_Vector_impl" }
%"struct.std::_Vector_base<std::shared_ptr<clang::DependencyCollector>, std::allocator<std::shared_ptr<clang::DependencyCollector>>>::_Vector_impl" = type { %"struct.std::_Vector_base<std::shared_ptr<clang::DependencyCollector>, std::allocator<std::shared_ptr<clang::DependencyCollector>>>::_Vector_impl_data" }
%"struct.std::_Vector_base<std::shared_ptr<clang::DependencyCollector>, std::allocator<std::shared_ptr<clang::DependencyCollector>>>::_Vector_impl_data" = type { ptr, ptr, ptr }
%"class.std::shared_ptr.916" = type { %"class.std::__shared_ptr.917" }
%"class.std::__shared_ptr.917" = type { ptr, %"class.std::__shared_count" }
%"class.std::map.54" = type { %"class.std::_Rb_tree.55" }
%"class.std::_Rb_tree.55" = type { %"struct.std::_Rb_tree<std::__cxx11::basic_string<char>, std::pair<const std::__cxx11::basic_string<char>, std::__cxx11::basic_string<char>>, std::_Select1st<std::pair<const std::__cxx11::basic_string<char>, std::__cxx11::basic_string<char>>>, std::less<void>>::_Rb_tree_impl" }
%"struct.std::_Rb_tree<std::__cxx11::basic_string<char>, std::pair<const std::__cxx11::basic_string<char>, std::__cxx11::basic_string<char>>, std::_Select1st<std::pair<const std::__cxx11::basic_string<char>, std::__cxx11::basic_string<char>>>, std::less<void>>::_Rb_tree_impl" = type { [8 x i8], %"struct.std::_Rb_tree_header" }
%"class.clang::ModuleLoadResult" = type { %"class.llvm::PointerIntPair.919" }
%"class.llvm::PointerIntPair.919" = type { %"struct.llvm::detail::PunnedPointer.920" }
%"struct.llvm::detail::PunnedPointer.920" = type { [8 x i8] }
%"class.std::unique_ptr.921" = type { %"struct.std::__uniq_ptr_data.922" }
%"struct.std::__uniq_ptr_data.922" = type { %"class.std::__uniq_ptr_impl.923" }
%"class.std::__uniq_ptr_impl.923" = type { %"class.std::tuple.924" }
%"class.std::tuple.924" = type { %"struct.std::_Tuple_impl.925" }
%"struct.std::_Tuple_impl.925" = type { %"struct.std::_Head_base.928" }
%"struct.std::_Head_base.928" = type { ptr }
%"class.std::__cxx11::list.929" = type { %"class.std::__cxx11::_List_base.930" }
%"class.std::__cxx11::_List_base.930" = type { %"struct.std::__cxx11::_List_base<clang::CompilerInstance::OutputFile, std::allocator<clang::CompilerInstance::OutputFile>>::_List_impl" }
%"struct.std::__cxx11::_List_base<clang::CompilerInstance::OutputFile, std::allocator<clang::CompilerInstance::OutputFile>>::_List_impl" = type { %"struct.std::__detail::_List_node_header" }
%"class.clang::LangOptionsBase" = type <{ i64, i64, i64, i64, i64, i64, i64, i64, i64, i64, i64, i64, i64, i64, i64, i64, i64, i64, i64, i64, i64, i64, i64, i64, i64, i16, [2 x i8] }>
%"class.std::shared_ptr.1026" = type { %"class.std::__shared_ptr.1027" }
%"class.std::__shared_ptr.1027" = type { ptr, %"class.std::__shared_count" }
%"class.clang::CompilerInvocationBase" = type { %"class.std::shared_ptr.1316", %"class.std::shared_ptr.729", %"class.llvm::IntrusiveRefCntPtr.14", %"class.std::shared_ptr.1319", %"class.std::shared_ptr.1026", %"class.llvm::IntrusiveRefCntPtr.1322", %"class.std::shared_ptr.1323", %"class.std::shared_ptr.1326", %"class.std::shared_ptr.1329", %"class.std::shared_ptr.1332", %"class.std::shared_ptr.1335", %"class.std::shared_ptr.1338", %"class.std::shared_ptr.1341" }
%"class.std::shared_ptr.1316" = type { %"class.std::__shared_ptr.1317" }
%"class.std::__shared_ptr.1317" = type { ptr, %"class.std::__shared_count" }
%"class.std::shared_ptr.1319" = type { %"class.std::__shared_ptr.1320" }
%"class.std::__shared_ptr.1320" = type { ptr, %"class.std::__shared_count" }
%"class.llvm::IntrusiveRefCntPtr.1322" = type { ptr }
%"class.std::shared_ptr.1323" = type { %"class.std::__shared_ptr.1324" }
%"class.std::__shared_ptr.1324" = type { ptr, %"class.std::__shared_count" }
%"class.std::shared_ptr.1326" = type { %"class.std::__shared_ptr.1327" }
%"class.std::__shared_ptr.1327" = type { ptr, %"class.std::__shared_count" }
%"class.std::shared_ptr.1329" = type { %"class.std::__shared_ptr.1330" }
%"class.std::__shared_ptr.1330" = type { ptr, %"class.std::__shared_count" }
%"class.std::shared_ptr.1332" = type { %"class.std::__shared_ptr.1333" }
%"class.std::__shared_ptr.1333" = type { ptr, %"class.std::__shared_count" }
%"class.std::shared_ptr.1335" = type { %"class.std::__shared_ptr.1336" }
%"class.std::__shared_ptr.1336" = type { ptr, %"class.std::__shared_count" }
%"class.std::shared_ptr.1338" = type { %"class.std::__shared_ptr.1339" }
%"class.std::__shared_ptr.1339" = type { ptr, %"class.std::__shared_count" }
%"class.std::shared_ptr.1341" = type { %"class.std::__shared_ptr.1342" }
%"class.std::__shared_ptr.1342" = type { ptr, %"class.std::__shared_count" }

; Function Attrs: mustprogress nounwind uwtable
define linkonce_odr hidden noundef ptr @_ZNKSt12__shared_ptrIN5clang11LangOptionsELN9__gnu_cxx12_Lock_policyE2EE3getEv(ptr noundef nonnull align 8 dereferenceable(16) %0) #0 comdat align 2 {
  %2 = alloca ptr, align 8
  store ptr %0, ptr %2, align 8
  %3 = load ptr, ptr %2, align 8
  %4 = getelementptr inbounds nuw %"class.std::__shared_ptr.1317", ptr %3, i32 0, i32 0
  %5 = load ptr, ptr %4, align 8
  ret ptr %5
}

; Function Attrs: mustprogress nounwind uwtable
define linkonce_odr hidden noundef ptr @_ZNKSt12__shared_ptrIN5clang15FrontendOptionsELN9__gnu_cxx12_Lock_policyE2EE3getEv(ptr noundef nonnull align 8 dereferenceable(16) %0) #0 comdat align 2 {
  %2 = alloca ptr, align 8
  store ptr %0, ptr %2, align 8
  %3 = load ptr, ptr %2, align 8
  %4 = getelementptr inbounds nuw %"class.std::__shared_ptr.1336", ptr %3, i32 0, i32 0
  %5 = load ptr, ptr %4, align 8
  ret ptr %5
}

; Function Attrs: mustprogress nounwind uwtable
define linkonce_odr hidden noundef ptr @_ZNKSt19__shared_ptr_accessIN5clang11LangOptionsELN9__gnu_cxx12_Lock_policyE2ELb0ELb0EE6_M_getEv(ptr noundef nonnull align 1 dereferenceable(1) %0) #0 comdat align 2 {
  %2 = alloca ptr, align 8
  store ptr %0, ptr %2, align 8
  %3 = load ptr, ptr %2, align 8
  %4 = call noundef ptr @_ZNKSt12__shared_ptrIN5clang11LangOptionsELN9__gnu_cxx12_Lock_policyE2EE3getEv(ptr noundef nonnull align 8 dereferenceable(16) %3) #13
  ret ptr %4
}

; Function Attrs: mustprogress nounwind uwtable
define linkonce_odr hidden noundef ptr @_ZNKSt19__shared_ptr_accessIN5clang15FrontendOptionsELN9__gnu_cxx12_Lock_policyE2ELb0ELb0EE6_M_getEv(ptr noundef nonnull align 1 dereferenceable(1) %0) #0 comdat align 2 {
  %2 = alloca ptr, align 8
  store ptr %0, ptr %2, align 8
  %3 = load ptr, ptr %2, align 8
  %4 = call noundef ptr @_ZNKSt12__shared_ptrIN5clang15FrontendOptionsELN9__gnu_cxx12_Lock_policyE2EE3getEv(ptr noundef nonnull align 8 dereferenceable(16) %3) #13
  ret ptr %4
}

; Function Attrs: mustprogress nounwind uwtable
define linkonce_odr hidden noundef ptr @_ZNKSt12__shared_ptrIN5clang18CompilerInvocationELN9__gnu_cxx12_Lock_policyE2EE3getEv(ptr noundef nonnull align 8 dereferenceable(16) %0) #0 comdat align 2 {
  %2 = alloca ptr, align 8
  store ptr %0, ptr %2, align 8
  %3 = load ptr, ptr %2, align 8
  %4 = getelementptr inbounds nuw %"class.std::__shared_ptr.852", ptr %3, i32 0, i32 0
  %5 = load ptr, ptr %4, align 8
  ret ptr %5
}

; Function Attrs: mustprogress nounwind uwtable
define linkonce_odr hidden noundef nonnull align 8 dereferenceable(841) ptr @_ZNKSt19__shared_ptr_accessIN5clang11LangOptionsELN9__gnu_cxx12_Lock_policyE2ELb0ELb0EEdeEv(ptr noundef nonnull align 1 dereferenceable(1) %0) #0 comdat align 2 {
  %2 = alloca ptr, align 8
  store ptr %0, ptr %2, align 8
  %3 = load ptr, ptr %2, align 8
  br label %4

4:                                                ; preds = %1
  br label %5

5:                                                ; preds = %4
  %6 = call noundef ptr @_ZNKSt19__shared_ptr_accessIN5clang11LangOptionsELN9__gnu_cxx12_Lock_policyE2ELb0ELb0EE6_M_getEv(ptr noundef nonnull align 1 dereferenceable(1) %3) #13
  ret ptr %6
}

; Function Attrs: mustprogress nounwind uwtable
define linkonce_odr hidden noundef nonnull align 8 dereferenceable(920) ptr @_ZNKSt19__shared_ptr_accessIN5clang15FrontendOptionsELN9__gnu_cxx12_Lock_policyE2ELb0ELb0EEdeEv(ptr noundef nonnull align 1 dereferenceable(1) %0) #0 comdat align 2 {
  %2 = alloca ptr, align 8
  store ptr %0, ptr %2, align 8
  %3 = load ptr, ptr %2, align 8
  br label %4

4:                                                ; preds = %1
  br label %5

5:                                                ; preds = %4
  %6 = call noundef ptr @_ZNKSt19__shared_ptr_accessIN5clang15FrontendOptionsELN9__gnu_cxx12_Lock_policyE2ELb0ELb0EE6_M_getEv(ptr noundef nonnull align 1 dereferenceable(1) %3) #13
  ret ptr %6
}

; Function Attrs: mustprogress nounwind uwtable
define linkonce_odr hidden noundef ptr @_ZNKSt19__shared_ptr_accessIN5clang18CompilerInvocationELN9__gnu_cxx12_Lock_policyE2ELb0ELb0EE6_M_getEv(ptr noundef nonnull align 1 dereferenceable(1) %0) #0 comdat align 2 {
  %2 = alloca ptr, align 8
  store ptr %0, ptr %2, align 8
  %3 = load ptr, ptr %2, align 8
  %4 = call noundef ptr @_ZNKSt12__shared_ptrIN5clang18CompilerInvocationELN9__gnu_cxx12_Lock_policyE2EE3getEv(ptr noundef nonnull align 8 dereferenceable(16) %3) #13
  ret ptr %4
}

; Function Attrs: mustprogress nounwind uwtable
define linkonce_odr hidden noundef nonnull align 8 dereferenceable(841) ptr @_ZN5clang18CompilerInvocation11getLangOptsEv(ptr noundef nonnull align 8 dereferenceable(192) %0) #0 comdat align 2 {
  %2 = alloca ptr, align 8
  store ptr %0, ptr %2, align 8
  %3 = load ptr, ptr %2, align 8
  %4 = getelementptr inbounds nuw %"class.clang::CompilerInvocationBase", ptr %3, i32 0, i32 0
  %5 = call noundef nonnull align 8 dereferenceable(841) ptr @_ZNKSt19__shared_ptr_accessIN5clang11LangOptionsELN9__gnu_cxx12_Lock_policyE2ELb0ELb0EEdeEv(ptr noundef nonnull align 1 dereferenceable(1) %4) #13
  ret ptr %5
}

; Function Attrs: mustprogress nounwind uwtable
define linkonce_odr hidden noundef nonnull align 8 dereferenceable(920) ptr @_ZN5clang18CompilerInvocation15getFrontendOptsEv(ptr noundef nonnull align 8 dereferenceable(192) %0) #0 comdat align 2 {
  %2 = alloca ptr, align 8
  store ptr %0, ptr %2, align 8
  %3 = load ptr, ptr %2, align 8
  %4 = getelementptr inbounds nuw %"class.clang::CompilerInvocationBase", ptr %3, i32 0, i32 10
  %5 = call noundef nonnull align 8 dereferenceable(920) ptr @_ZNKSt19__shared_ptr_accessIN5clang15FrontendOptionsELN9__gnu_cxx12_Lock_policyE2ELb0ELb0EEdeEv(ptr noundef nonnull align 1 dereferenceable(1) %4) #13
  ret ptr %5
}

; Function Attrs: mustprogress nounwind uwtable
define linkonce_odr hidden noundef ptr @_ZNKSt19__shared_ptr_accessIN5clang18CompilerInvocationELN9__gnu_cxx12_Lock_policyE2ELb0ELb0EEptEv(ptr noundef nonnull align 1 dereferenceable(1) %0) #0 comdat align 2 {
  %2 = alloca ptr, align 8
  store ptr %0, ptr %2, align 8
  %3 = load ptr, ptr %2, align 8
  %4 = call noundef ptr @_ZNKSt19__shared_ptr_accessIN5clang18CompilerInvocationELN9__gnu_cxx12_Lock_policyE2ELb0ELb0EE6_M_getEv(ptr noundef nonnull align 1 dereferenceable(1) %3) #13
  ret ptr %4
}

; Function Attrs: mustprogress nounwind uwtable
define linkonce_odr hidden void @_ZN5clang11LangOptions18setCompilingModuleENS_15LangOptionsBase19CompilingModuleKindE(ptr noundef nonnull align 8 dereferenceable(841) %0, i32 noundef %1) #0 comdat align 2 {
  %3 = alloca ptr, align 8
  %4 = alloca i32, align 4
  store ptr %0, ptr %3, align 8
  store i32 %1, ptr %4, align 4
  %5 = load ptr, ptr %3, align 8
  %6 = load i32, ptr %4, align 4
  %7 = getelementptr inbounds nuw %"class.clang::LangOptionsBase", ptr %5, i32 0, i32 23
  %8 = zext i32 %6 to i64
  %9 = load i64, ptr %7, align 8
  %10 = and i64 %8, 7
  %11 = shl i64 %10, 43
  %12 = and i64 %9, -61572651155457
  %13 = or i64 %12, %11
  store i64 %13, ptr %7, align 8
  ret void
}

; Function Attrs: mustprogress nounwind uwtable
define linkonce_odr hidden noundef nonnull align 8 dereferenceable(841) ptr @_ZN5clang16CompilerInstance11getLangOptsEv(ptr noundef nonnull align 8 dereferenceable(352) %0) #0 comdat align 2 {
  %2 = alloca ptr, align 8
  store ptr %0, ptr %2, align 8
  %3 = load ptr, ptr %2, align 8
  %4 = getelementptr inbounds nuw %"class.clang::CompilerInstance", ptr %3, i32 0, i32 1
  %5 = call noundef ptr @_ZNKSt19__shared_ptr_accessIN5clang18CompilerInvocationELN9__gnu_cxx12_Lock_policyE2ELb0ELb0EEptEv(ptr noundef nonnull align 1 dereferenceable(1) %4) #13
  %6 = call noundef nonnull align 8 dereferenceable(841) ptr @_ZN5clang18CompilerInvocation11getLangOptsEv(ptr noundef nonnull align 8 dereferenceable(192) %5)
  ret ptr %6
}

; Function Attrs: mustprogress nounwind uwtable
define linkonce_odr hidden noundef nonnull align 8 dereferenceable(920) ptr @_ZN5clang16CompilerInstance15getFrontendOptsEv(ptr noundef nonnull align 8 dereferenceable(352) %0) #0 comdat align 2 {
  %2 = alloca ptr, align 8
  store ptr %0, ptr %2, align 8
  %3 = load ptr, ptr %2, align 8
  %4 = getelementptr inbounds nuw %"class.clang::CompilerInstance", ptr %3, i32 0, i32 1
  %5 = call noundef ptr @_ZNKSt19__shared_ptr_accessIN5clang18CompilerInvocationELN9__gnu_cxx12_Lock_policyE2ELb0ELb0EEptEv(ptr noundef nonnull align 1 dereferenceable(1) %4) #13
  %6 = call noundef nonnull align 8 dereferenceable(920) ptr @_ZN5clang18CompilerInvocation15getFrontendOptsEv(ptr noundef nonnull align 8 dereferenceable(192) %5)
  ret ptr %6
}

; Function Attrs: mustprogress nounwind uwtable
define dso_local noundef zeroext i1 @_ZN5clang13CodeGenAction21BeginSourceFileActionERNS_16CompilerInstanceE(ptr noundef nonnull align 8 dereferenceable(224) %0, ptr noundef nonnull align 8 dereferenceable(352) %1) unnamed_addr #0 align 2 {
  %3 = alloca ptr, align 8
  %4 = alloca ptr, align 8
  store ptr %0, ptr %3, align 8
  store ptr %1, ptr %4, align 8
  %5 = load ptr, ptr %4, align 8
  %6 = call noundef nonnull align 8 dereferenceable(920) ptr @_ZN5clang16CompilerInstance15getFrontendOptsEv(ptr noundef nonnull align 8 dereferenceable(352) %5)
  %7 = load i64, ptr %6, align 8
  %8 = lshr i64 %7, 33
  %9 = and i64 %8, 1
  %10 = trunc i64 %9 to i32
  %11 = icmp ne i32 %10, 0
  br i1 %11, label %12, label %15

12:                                               ; preds = %2
  %13 = load ptr, ptr %4, align 8
  %14 = call noundef nonnull align 8 dereferenceable(841) ptr @_ZN5clang16CompilerInstance11getLangOptsEv(ptr noundef nonnull align 8 dereferenceable(352) %13)
  call void @_ZN5clang11LangOptions18setCompilingModuleENS_15LangOptionsBase19CompilingModuleKindE(ptr noundef nonnull align 8 dereferenceable(841) %14, i32 noundef 3)
  br label %15

15:                                               ; preds = %12, %2
  ret i1 true
}