; Function Attrs: mustprogress nofree norecurse nosync nounwind willreturn memory(readwrite, inaccessiblemem: none) uwtable
define dso_local noundef zeroext i1 @_ZN5clang13CodeGenAction21BeginSourceFileActionERNS_16CompilerInstanceE(ptr nocapture nonnull readnone align 8 %0, ptr nocapture noundef nonnull readonly align 8 dereferenceable(352) %1) unnamed_addr #12 align 2 {
  %3 = getelementptr inbounds nuw i8, ptr %1, i64 16
  %4 = load ptr, ptr %3, align 8
  %5 = getelementptr inbounds nuw i8, ptr %4, i64 144
  %6 = load ptr, ptr %5, align 8
  %7 = load i64, ptr %6, align 8
  %8 = and i64 %7, 8589934592
  %.not = icmp eq i64 %8, 0
  br i1 %.not, label %15, label %9

9:                                                ; preds = %2
  %10 = load ptr, ptr %4, align 8
  %11 = getelementptr inbounds nuw i8, ptr %10, i64 184
  %12 = load i64, ptr %11, align 8
  %13 = and i64 %12, -61572651155457
  %14 = or disjoint i64 %13, 26388279066624
  store i64 %14, ptr %11, align 8
  br label %15

15:                                               ; preds = %9, %2
  ret i1 true
}